target datalayout = "e-m:e-p270:32:32-p271:32:32-p272:64:64-i64:64-i128:128-f80:128-n8:16:32:64-S128"
target triple = "x86_64-pc-linux-gnu"

%struct.lv_ll_t = type { i32, ptr, ptr }
%struct._lv_ime_pinyin_t = type { %struct._lv_obj_t, ptr, ptr, ptr, %struct.lv_ll_t, ptr, [16 x i8], [8 x i8], i16, i16, i16, i16, i16, i16, [26 x i16], [26 x i16], i32 }
%struct._lv_obj_t = type { ptr, ptr, ptr, ptr, ptr, %struct.lv_area_t, i32, i16, i16 }
%struct.lv_area_t = type { i32, i32, i32, i32 }

@.str.18 = private unnamed_addr constant [2 x i8] zeroinitializer, align 1
@default_kb_ctrl_k9_map = internal global <{ i32, [19 x i32] }> <{ i32 1, [19 x i32] zeroinitializer }>, align 16
@lv_pinyin_k9_cand_str = internal global [5 x [7 x i8]] zeroinitializer, align 16
@.str.660 = private unnamed_addr constant [5 x i8] c"\EF\81\94\00\00", align 1
@.str.681 = private unnamed_addr constant [3 x i8] c" \00\00", align 1

; Function Attrs: nounwind uwtable
define internal void @pinyin_k9_init_data(ptr noundef %0) #0 {
  %2 = alloca ptr, align 8
  %3 = alloca i16, align 2
  %4 = alloca i16, align 2
  store ptr %0, ptr %2, align 8, !tbaa !8
  call void @llvm.lifetime.start.p0(i64 2, ptr %3) #6
  store i16 0, ptr %3, align 2, !tbaa !12
  call void @llvm.lifetime.start.p0(i64 2, ptr %4) #6
  store i16 0, ptr %4, align 2, !tbaa !12
  store i16 19, ptr %4, align 2, !tbaa !12
  br label %5

5:                                                ; preds = %46, %1
  %6 = load i16, ptr %4, align 2, !tbaa !12
  %7 = zext i16 %6 to i32
  %8 = icmp slt i32 %7, 24
  br i1 %8, label %9, label %49

9:                                                ; preds = %5
  %10 = load i16, ptr %3, align 2, !tbaa !12
  %11 = zext i16 %10 to i32
  %12 = icmp eq i32 %11, 3
  br i1 %12, label %13, label %19

13:                                               ; preds = %9
  %14 = load i16, ptr %3, align 2, !tbaa !12
  %15 = zext i16 %14 to i64
  %16 = getelementptr inbounds nuw [5 x [7 x i8]], ptr @lv_pinyin_k9_cand_str, i64 0, i64 %15
  %17 = getelementptr inbounds [7 x i8], ptr %16, i64 0, i64 0
  %18 = call ptr @lv_strcpy(ptr noundef %17, ptr noundef @.str.660)
  br label %36

19:                                               ; preds = %9
  %20 = load i16, ptr %3, align 2, !tbaa !12
  %21 = zext i16 %20 to i32
  %22 = icmp eq i32 %21, 4
  br i1 %22, label %23, label %29

23:                                               ; preds = %19
  %24 = load i16, ptr %3, align 2, !tbaa !12
  %25 = zext i16 %24 to i64
  %26 = getelementptr inbounds nuw [5 x [7 x i8]], ptr @lv_pinyin_k9_cand_str, i64 0, i64 %25
  %27 = getelementptr inbounds [7 x i8], ptr %26, i64 0, i64 0
  %28 = call ptr @lv_strcpy(ptr noundef %27, ptr noundef @.str.18)
  br label %35

29:                                               ; preds = %19
  %30 = load i16, ptr %3, align 2, !tbaa !12
  %31 = zext i16 %30 to i64
  %32 = getelementptr inbounds nuw [5 x [7 x i8]], ptr @lv_pinyin_k9_cand_str, i64 0, i64 %31
  %33 = getelementptr inbounds [7 x i8], ptr %32, i64 0, i64 0
  %34 = call ptr @lv_strcpy(ptr noundef %33, ptr noundef @.str.681)
  br label %35

35:                                               ; preds = %29, %23
  br label %36

36:                                               ; preds = %35, %13
  %37 = load i16, ptr %3, align 2, !tbaa !12
  %38 = zext i16 %37 to i64
  %39 = getelementptr inbounds nuw [5 x [7 x i8]], ptr @lv_pinyin_k9_cand_str, i64 0, i64 %38
  %40 = getelementptr inbounds [7 x i8], ptr %39, i64 0, i64 0
  %41 = load i16, ptr %4, align 2, !tbaa !12
  %42 = zext i16 %41 to i64
  %43 = getelementptr inbounds nuw [24 x ptr], ptr @lv_btnm_def_pinyin_k9_map, i64 0, i64 %42
  store ptr %40, ptr %43, align 8, !tbaa !14
  %44 = load i16, ptr %3, align 2, !tbaa !12
  %45 = add i16 %44, 1
  store i16 %45, ptr %3, align 2, !tbaa !12
  br label %46

46:                                               ; preds = %36
  %47 = load i16, ptr %4, align 2, !tbaa !12
  %48 = add i16 %47, 1
  store i16 %48, ptr %4, align 2, !tbaa !12
  br label %5, !llvm.loop !46

49:                                               ; preds = %5
  store i32 257, ptr @default_kb_ctrl_k9_map, align 16, !tbaa !37
  store i32 545, ptr getelementptr inbounds ([20 x i32], ptr @default_kb_ctrl_k9_map, i64 0, i64 1), align 4, !tbaa !37
  store i32 257, ptr getelementptr inbounds ([20 x i32], ptr @default_kb_ctrl_k9_map, i64 0, i64 4), align 16, !tbaa !37
  store i32 257, ptr getelementptr inbounds ([20 x i32], ptr @default_kb_ctrl_k9_map, i64 0, i64 5), align 4, !tbaa !37
  store i32 801, ptr getelementptr inbounds ([20 x i32], ptr @default_kb_ctrl_k9_map, i64 0, i64 9), align 4, !tbaa !37
  store i32 257, ptr getelementptr inbounds ([20 x i32], ptr @default_kb_ctrl_k9_map, i64 0, i64 10), align 8, !tbaa !37
  store i32 257, ptr getelementptr inbounds ([20 x i32], ptr @default_kb_ctrl_k9_map, i64 0, i64 14), align 8, !tbaa !37
  store i32 257, ptr getelementptr inbounds ([20 x i32], ptr @default_kb_ctrl_k9_map, i64 0, i64 15), align 4, !tbaa !37
  store i32 257, ptr getelementptr inbounds ([20 x i32], ptr @default_kb_ctrl_k9_map, i64 0, i64 19), align 4, !tbaa !37
  call void @llvm.lifetime.end.p0(i64 2, ptr %4) #6
  call void @llvm.lifetime.end.p0(i64 2, ptr %3) #6
  ret void
}

; Function Attrs: nounwind uwtable
define void @lv_ime_pinyin_set_mode(ptr noundef %0, i32 noundef %1) #0 {
  %3 = alloca ptr, align 8
  %4 = alloca i32, align 4
  %5 = alloca ptr, align 8
  store ptr %0, ptr %3, align 8, !tbaa !8
  store i32 %1, ptr %4, align 4, !tbaa !37
  br label %6

6:                                                ; preds = %2
  %7 = load ptr, ptr %3, align 8, !tbaa !8
  %8 = icmp ne ptr %7, null
  br i1 %8, label %13, label %9

9:                                                ; preds = %6
  br label %10

10:                                               ; preds = %9
  br label %11

11:                                               ; preds = %10
  br label %12

12:                                               ; preds = %11, %12
  br label %12

13:                                               ; preds = %6
  br label %14

14:                                               ; preds = %13
  call void @llvm.lifetime.start.p0(i64 8, ptr %5) #6
  %15 = load ptr, ptr %3, align 8, !tbaa !8
  store ptr %15, ptr %5, align 8, !tbaa !10
  br label %16

16:                                               ; preds = %14
  %17 = load ptr, ptr %5, align 8, !tbaa !10
  %18 = getelementptr inbounds nuw %struct._lv_ime_pinyin_t, ptr %17, i32 0, i32 1
  %19 = load ptr, ptr %18, align 8, !tbaa !34
  %20 = icmp ne ptr %19, null
  br i1 %20, label %27, label %21

21:                                               ; preds = %16
  br label %22

22:                                               ; preds = %21
  br label %23

23:                                               ; preds = %22
  br label %24

24:                                               ; preds = %23
  br label %25

25:                                               ; preds = %26, %24
  br label %26

26:                                               ; preds = %25
  br label %25

27:                                               ; preds = %16
  br label %28

28:                                               ; preds = %27
  br label %29

29:                                               ; preds = %28
  %30 = load i32, ptr %4, align 4, !tbaa !37
  %31 = load ptr, ptr %5, align 8, !tbaa !10
  %32 = getelementptr inbounds nuw %struct._lv_ime_pinyin_t, ptr %31, i32 0, i32 16
  store i32 %30, ptr %32, align 4, !tbaa !19
  %33 = load ptr, ptr %5, align 8, !tbaa !10
  %34 = getelementptr inbounds nuw %struct._lv_ime_pinyin_t, ptr %33, i32 0, i32 16
  %35 = load i32, ptr %34, align 4, !tbaa !19
  %36 = icmp eq i32 %35, 1
  br i1 %36, label %37, label %45

37:                                               ; preds = %29
  %38 = load ptr, ptr %3, align 8, !tbaa !8
  call void @pinyin_k9_init_data(ptr noundef %38)
  %39 = load ptr, ptr %5, align 8, !tbaa !10
  %40 = getelementptr inbounds nuw %struct._lv_ime_pinyin_t, ptr %39, i32 0, i32 1
  %41 = load ptr, ptr %40, align 8, !tbaa !34
  call void @lv_keyboard_set_map(ptr noundef %41, i32 noundef 4, ptr noundef @lv_btnm_def_pinyin_k9_map, ptr noundef @default_kb_ctrl_k9_map)
  %42 = load ptr, ptr %5, align 8, !tbaa !10
  %43 = getelementptr inbounds nuw %struct._lv_ime_pinyin_t, ptr %42, i32 0, i32 1
  %44 = load ptr, ptr %43, align 8, !tbaa !34
  call void @lv_keyboard_set_mode(ptr noundef %44, i32 noundef 4)
  br label %45

45:                                               ; preds = %37, %29
  call void @llvm.lifetime.end.p0(i64 8, ptr %5) #6
  ret void
}