; Function Attrs: nounwind uwtable
define void @lv_ime_pinyin_set_mode(ptr noundef captures(address_is_null) %0, i32 noundef %1) local_unnamed_addr #0 {
  %.not = icmp eq ptr %0, null
  br i1 %.not, label %.preheader, label %3

.preheader:                                       ; preds = %2, %.preheader
  br label %.preheader

3:                                                ; preds = %2
  %4 = getelementptr inbounds nuw i8, ptr %0, i64 64
  %5 = load ptr, ptr %4, align 8, !tbaa !36
  %.not8 = icmp eq ptr %5, null
  br i1 %.not8, label %.preheader9, label %6

.preheader9:                                      ; preds = %3, %.preheader9
  br label %.preheader9

6:                                                ; preds = %3
  %7 = getelementptr inbounds nuw i8, ptr %0, i64 260
  store i32 %1, ptr %7, align 4, !tbaa !11
  %8 = icmp eq i32 %1, 1
  br i1 %8, label %.preheader10, label %14

.preheader10:                                     ; preds = %6, %.preheader10
  %indvars.iv3.i = phi i64 [ %indvars.iv.next4.i, %.preheader10 ], [ 0, %6 ]
  %indvars.iv.i = phi i64 [ %indvars.iv.next.i, %.preheader10 ], [ 19, %6 ]
  %9 = getelementptr inbounds nuw [5 x [7 x i8]], ptr @lv_pinyin_k9_cand_str, i64 0, i64 %indvars.iv3.i
  %switch.selectcmp.i = icmp eq i64 %indvars.iv3.i, 4
  %switch.select.i = select i1 %switch.selectcmp.i, ptr @.str.18, ptr @.str.681
  %switch.selectcmp8.i = icmp eq i64 %indvars.iv3.i, 3
  %switch.select9.i = select i1 %switch.selectcmp8.i, ptr @.str.660, ptr %switch.select.i
  %10 = tail call ptr @lv_strcpy(ptr noundef nonnull %9, ptr noundef nonnull %switch.select9.i) #6
  %11 = getelementptr inbounds nuw [24 x ptr], ptr @lv_btnm_def_pinyin_k9_map, i64 0, i64 %indvars.iv.i
  store ptr %9, ptr %11, align 8, !tbaa !3
  %indvars.iv.next4.i = add nuw nsw i64 %indvars.iv3.i, 1
  %indvars.iv.next.i = add nuw nsw i64 %indvars.iv.i, 1
  %exitcond.not.i = icmp eq i64 %indvars.iv.next4.i, 5
  br i1 %exitcond.not.i, label %pinyin_k9_init_data.exit, label %.preheader10, !llvm.loop !34

pinyin_k9_init_data.exit:                         ; preds = %.preheader10
  store i32 257, ptr @default_kb_ctrl_k9_map, align 16, !tbaa !35
  store i32 545, ptr getelementptr inbounds nuw (i8, ptr @default_kb_ctrl_k9_map, i64 4), align 4, !tbaa !35
  store i32 257, ptr getelementptr inbounds nuw (i8, ptr @default_kb_ctrl_k9_map, i64 16), align 16, !tbaa !35
  store i32 257, ptr getelementptr inbounds nuw (i8, ptr @default_kb_ctrl_k9_map, i64 20), align 4, !tbaa !35
  store i32 801, ptr getelementptr inbounds nuw (i8, ptr @default_kb_ctrl_k9_map, i64 36), align 4, !tbaa !35
  store i32 257, ptr getelementptr inbounds nuw (i8, ptr @default_kb_ctrl_k9_map, i64 40), align 8, !tbaa !35
  store i32 257, ptr getelementptr inbounds nuw (i8, ptr @default_kb_ctrl_k9_map, i64 56), align 8, !tbaa !35
  store i32 257, ptr getelementptr inbounds nuw (i8, ptr @default_kb_ctrl_k9_map, i64 60), align 4, !tbaa !35
  store i32 257, ptr getelementptr inbounds nuw (i8, ptr @default_kb_ctrl_k9_map, i64 76), align 4, !tbaa !35
  %12 = load ptr, ptr %4, align 8, !tbaa !36
  tail call void @lv_keyboard_set_map(ptr noundef %12, i32 noundef 4, ptr noundef nonnull @lv_btnm_def_pinyin_k9_map, ptr noundef nonnull @default_kb_ctrl_k9_map) #6
  %13 = load ptr, ptr %4, align 8, !tbaa !36
  tail call void @lv_keyboard_set_mode(ptr noundef %13, i32 noundef 4) #6
  br label %14

14:                                               ; preds = %pinyin_k9_init_data.exit, %6
  ret void
}